target datalayout = "e-m:e-p270:32:32-p271:32:32-p272:64:64-i64:64-i128:128-f80:128-n8:16:32:64-S128"
target triple = "x86_64-pc-linux-gnu"

%struct.ElsDecCtx = type { ptr, i32, i64, i32, i32, i32, i32 }

; Function Attrs: alwaysinline nounwind willreturn memory(none) uwtable
define internal zeroext i16 @av_bswap16(i16 noundef zeroext %0) #2 {
  %2 = alloca i16, align 2
  store i16 %0, ptr %2, align 2, !tbaa !24
  %3 = load i16, ptr %2, align 2, !tbaa !24
  %4 = zext i16 %3 to i32
  %5 = ashr i32 %4, 8
  %6 = load i16, ptr %2, align 2, !tbaa !24
  %7 = zext i16 %6 to i32
  %8 = shl i32 %7, 8
  %9 = or i32 %5, %8
  %10 = trunc i32 %9 to i16
  store i16 %10, ptr %2, align 2, !tbaa !24
  %11 = load i16, ptr %2, align 2, !tbaa !24
  ret i16 %11
}

; Function Attrs: nounwind uwtable
define void @ff_els_decoder_init(ptr noundef %0, ptr noundef %1, i64 noundef %2) #0 {
  %4 = alloca ptr, align 8
  %5 = alloca ptr, align 8
  %6 = alloca i64, align 8
  %7 = alloca i32, align 4
  store ptr %0, ptr %4, align 8, !tbaa !4
  store ptr %1, ptr %5, align 8, !tbaa !9
  store i64 %2, ptr %6, align 8, !tbaa !11
  call void @llvm.lifetime.start.p0(i64 4, ptr %7) #5
  %8 = load i64, ptr %6, align 8, !tbaa !11
  %9 = icmp uge i64 %8, 3
  br i1 %9, label %10, label %29

10:                                               ; preds = %3
  %11 = load ptr, ptr %5, align 8, !tbaa !9
  %12 = getelementptr inbounds i8, ptr %11, i64 0
  %13 = load i8, ptr %12, align 1, !tbaa !13
  %14 = zext i8 %13 to i32
  %15 = shl i32 %14, 16
  %16 = load ptr, ptr %5, align 8, !tbaa !9
  %17 = getelementptr inbounds i8, ptr %16, i64 1
  %18 = load i8, ptr %17, align 1, !tbaa !13
  %19 = zext i8 %18 to i32
  %20 = shl i32 %19, 8
  %21 = or i32 %15, %20
  %22 = load ptr, ptr %5, align 8, !tbaa !9
  %23 = getelementptr inbounds i8, ptr %22, i64 2
  %24 = load i8, ptr %23, align 1, !tbaa !13
  %25 = zext i8 %24 to i32
  %26 = or i32 %21, %25
  %27 = load ptr, ptr %4, align 8, !tbaa !4
  %28 = getelementptr inbounds nuw %struct.ElsDecCtx, ptr %27, i32 0, i32 1
  store i32 %26, ptr %28, align 8, !tbaa !14
  store i32 3, ptr %7, align 4, !tbaa !17
  br label %46

29:                                               ; preds = %3
  %30 = load i64, ptr %6, align 8, !tbaa !11
  %31 = icmp eq i64 %30, 2
  br i1 %31, label %32, label %39

32:                                               ; preds = %29
  %33 = load ptr, ptr %5, align 8, !tbaa !9
  %34 = load i16, ptr %33, align 1, !tbaa !13
  %35 = call zeroext i16 @av_bswap16(i16 noundef zeroext %34) #6
  %36 = zext i16 %35 to i32
  %37 = load ptr, ptr %4, align 8, !tbaa !4
  %38 = getelementptr inbounds nuw %struct.ElsDecCtx, ptr %37, i32 0, i32 1
  store i32 %36, ptr %38, align 8, !tbaa !14
  store i32 2, ptr %7, align 4, !tbaa !17
  br label %45

39:                                               ; preds = %29
  %40 = load ptr, ptr %5, align 8, !tbaa !9
  %41 = load i8, ptr %40, align 1, !tbaa !13
  %42 = zext i8 %41 to i32
  %43 = load ptr, ptr %4, align 8, !tbaa !4
  %44 = getelementptr inbounds nuw %struct.ElsDecCtx, ptr %43, i32 0, i32 1
  store i32 %42, ptr %44, align 8, !tbaa !14
  store i32 1, ptr %7, align 4, !tbaa !17
  br label %45

45:                                               ; preds = %39, %32
  br label %46

46:                                               ; preds = %45, %10
  %47 = load ptr, ptr %5, align 8, !tbaa !9
  %48 = load i32, ptr %7, align 4, !tbaa !17
  %49 = sext i32 %48 to i64
  %50 = getelementptr inbounds i8, ptr %47, i64 %49
  %51 = load ptr, ptr %4, align 8, !tbaa !4
  %52 = getelementptr inbounds nuw %struct.ElsDecCtx, ptr %51, i32 0, i32 0
  store ptr %50, ptr %52, align 8, !tbaa !18
  %53 = load i64, ptr %6, align 8, !tbaa !11
  %54 = load i32, ptr %7, align 4, !tbaa !17
  %55 = sext i32 %54 to i64
  %56 = sub i64 %53, %55
  %57 = load ptr, ptr %4, align 8, !tbaa !4
  %58 = getelementptr inbounds nuw %struct.ElsDecCtx, ptr %57, i32 0, i32 2
  store i64 %56, ptr %58, align 8, !tbaa !19
  %59 = load ptr, ptr %4, align 8, !tbaa !4
  %60 = getelementptr inbounds nuw %struct.ElsDecCtx, ptr %59, i32 0, i32 6
  store i32 0, ptr %60, align 4, !tbaa !20
  %61 = load ptr, ptr %4, align 8, !tbaa !4
  %62 = getelementptr inbounds nuw %struct.ElsDecCtx, ptr %61, i32 0, i32 3
  store i32 36, ptr %62, align 8, !tbaa !21
  %63 = load ptr, ptr %4, align 8, !tbaa !4
  %64 = getelementptr inbounds nuw %struct.ElsDecCtx, ptr %63, i32 0, i32 4
  store i32 16777216, ptr %64, align 4, !tbaa !22
  %65 = load ptr, ptr %4, align 8, !tbaa !4
  %66 = getelementptr inbounds nuw %struct.ElsDecCtx, ptr %65, i32 0, i32 1
  %67 = load i32, ptr %66, align 8, !tbaa !14
  %68 = sub i32 16777216, %67
  %69 = load i32, ptr getelementptr inbounds ([145 x i32], ptr @els_exp_tab, i64 0, i64 143), align 4, !tbaa !17
  %70 = sub i32 16777216, %69
  %71 = icmp ugt i32 %68, %70
  br i1 %71, label %72, label %75

72:                                               ; preds = %46
  %73 = load i32, ptr getelementptr inbounds ([145 x i32], ptr @els_exp_tab, i64 0, i64 143), align 4, !tbaa !17
  %74 = sub i32 16777216, %73
  br label %80

75:                                               ; preds = %46
  %76 = load ptr, ptr %4, align 8, !tbaa !4
  %77 = getelementptr inbounds nuw %struct.ElsDecCtx, ptr %76, i32 0, i32 1
  %78 = load i32, ptr %77, align 8, !tbaa !14
  %79 = sub i32 16777216, %78
  br label %80

80:                                               ; preds = %75, %72
  %81 = phi i32 [ %74, %72 ], [ %79, %75 ]
  %82 = load ptr, ptr %4, align 8, !tbaa !4
  %83 = getelementptr inbounds nuw %struct.ElsDecCtx, ptr %82, i32 0, i32 5
  store i32 %81, ptr %83, align 8, !tbaa !23
  call void @llvm.lifetime.end.p0(i64 4, ptr %7) #5
  ret void
}