; Function Attrs: mustprogress nofree norecurse nosync nounwind willreturn memory(argmem: readwrite) uwtable
define void @ff_els_decoder_init(ptr noundef writeonly captures(none) initializes((0, 12), (16, 40)) %0, ptr noundef %1, i64 noundef %2) local_unnamed_addr #0 {
  %4 = icmp ugt i64 %2, 2
  br i1 %4, label %5, label %18

5:                                                ; preds = %3
  %6 = load i8, ptr %1, align 1, !tbaa !4
  %7 = zext i8 %6 to i32
  %8 = shl nuw nsw i32 %7, 16
  %9 = getelementptr inbounds nuw i8, ptr %1, i64 1
  %10 = load i8, ptr %9, align 1, !tbaa !4
  %11 = zext i8 %10 to i32
  %12 = shl nuw nsw i32 %11, 8
  %13 = or disjoint i32 %12, %8
  %14 = getelementptr inbounds nuw i8, ptr %1, i64 2
  %15 = load i8, ptr %14, align 1, !tbaa !4
  %16 = zext i8 %15 to i32
  %17 = or disjoint i32 %13, %16
  br label %27

18:                                               ; preds = %3
  %19 = icmp eq i64 %2, 2
  br i1 %19, label %20, label %24

20:                                               ; preds = %18
  %21 = load i16, ptr %1, align 1, !tbaa !4
  %22 = tail call i16 @llvm.bswap.i16(i16 %21)
  %23 = zext i16 %22 to i32
  br label %27

24:                                               ; preds = %18
  %25 = load i8, ptr %1, align 1, !tbaa !4
  %26 = zext i8 %25 to i32
  br label %27

27:                                               ; preds = %20, %24, %5
  %.sink = phi i32 [ %23, %20 ], [ %26, %24 ], [ %17, %5 ]
  %.0 = phi i64 [ 2, %20 ], [ 1, %24 ], [ 3, %5 ]
  %28 = getelementptr inbounds nuw i8, ptr %0, i64 8
  store i32 %.sink, ptr %28, align 8, !tbaa !7
  %29 = getelementptr inbounds nuw i8, ptr %1, i64 %.0
  store ptr %29, ptr %0, align 8, !tbaa !13
  %30 = sub i64 %2, %.0
  %31 = getelementptr inbounds nuw i8, ptr %0, i64 16
  store i64 %30, ptr %31, align 8, !tbaa !14
  %32 = getelementptr inbounds nuw i8, ptr %0, i64 36
  store i32 0, ptr %32, align 4, !tbaa !15
  %33 = getelementptr inbounds nuw i8, ptr %0, i64 24
  store i32 36, ptr %33, align 8, !tbaa !16
  %34 = getelementptr inbounds nuw i8, ptr %0, i64 28
  store i32 16777216, ptr %34, align 4, !tbaa !17
  %35 = sub nuw nsw i32 16777216, %.sink
  %. = tail call i32 @llvm.umin.i32(i32 %35, i32 2395136)
  %36 = getelementptr inbounds nuw i8, ptr %0, i64 32
  store i32 %., ptr %36, align 8, !tbaa !18
  ret void
}